target datalayout = "e-m:e-p270:32:32-p271:32:32-p272:64:64-i64:64-i128:128-f80:128-n8:16:32:64-S128"
target triple = "x86_64-pc-linux-gnu"

%class.QString = type { ptr }
%class.SSAO = type <{ %class.DecorateShader, float, float, i32, i32, i32, i32, i32, i32, i32, i32, i32, i32, i32, i32, i32, i32, i32, i32, i32, [4 x i8] }>
%class.DecorateShader = type { ptr, i8, i32, i32, i32 }
%class.QMessageLogger = type { %class.QMessageLogContext }
%class.QMessageLogContext = type { i32, i32, ptr, ptr, ptr }
%class.QFile = type { %class.QFileDevice }
%class.QFileDevice = type { %class.QIODevice }
%class.QIODevice = type { %class.QObject }
%class.QObject = type { ptr, %class.QScopedPointer }
%class.QScopedPointer = type { ptr }
%class.QPaintDevice = type { ptr, i16, ptr }
%class.QImage = type { %class.QPaintDevice, ptr }

@.str.12 = private unnamed_addr constant [8 x i8] c"default\00", align 1
@.str.24 = private unnamed_addr constant [11 x i8] c":/rand.png\00", align 1
@.str.25 = private unnamed_addr constant [38 x i8] c"Warning failed to load noise texture!\00", align 1

; Function Attrs: mustprogress nounwind uwtable
define linkonce_odr void @_ZSt4swapIP10QImageDataENSt9enable_ifIXsr6__and_ISt6__not_ISt15__is_tuple_likeIT_EESt21is_move_constructibleIS5_ESt18is_move_assignableIS5_EEE5valueEvE4typeERS5_SE_(ptr noundef nonnull align 8 dereferenceable(8) %0, ptr noundef nonnull align 8 dereferenceable(8) %1) #0 comdat {
  %3 = alloca ptr, align 8
  %4 = alloca ptr, align 8
  %5 = alloca ptr, align 8
  store ptr %0, ptr %3, align 8
  store ptr %1, ptr %4, align 8
  %6 = load ptr, ptr %3, align 8
  %7 = load ptr, ptr %6, align 8
  store ptr %7, ptr %5, align 8
  %8 = load ptr, ptr %4, align 8
  %9 = load ptr, ptr %8, align 8
  %10 = load ptr, ptr %3, align 8
  store ptr %9, ptr %10, align 8
  %11 = load ptr, ptr %5, align 8
  %12 = load ptr, ptr %4, align 8
  store ptr %11, ptr %12, align 8
  ret void
}

; Function Attrs: mustprogress nounwind uwtable
define linkonce_odr void @_ZN18QMessageLogContextC2EPKciS1_S1_(ptr noundef nonnull align 8 dereferenceable(32) %0, ptr noundef %1, i32 noundef %2, ptr noundef %3, ptr noundef %4) unnamed_addr #0 comdat align 2 {
  %6 = alloca ptr, align 8
  %7 = alloca ptr, align 8
  %8 = alloca i32, align 4
  %9 = alloca ptr, align 8
  %10 = alloca ptr, align 8
  store ptr %0, ptr %6, align 8
  store ptr %1, ptr %7, align 8
  store i32 %2, ptr %8, align 4
  store ptr %3, ptr %9, align 8
  store ptr %4, ptr %10, align 8
  %11 = load ptr, ptr %6, align 8
  %12 = getelementptr inbounds %class.QMessageLogContext, ptr %11, i32 0, i32 0
  store i32 2, ptr %12, align 8
  %13 = getelementptr inbounds %class.QMessageLogContext, ptr %11, i32 0, i32 1
  %14 = load i32, ptr %8, align 4
  store i32 %14, ptr %13, align 4
  %15 = getelementptr inbounds %class.QMessageLogContext, ptr %11, i32 0, i32 2
  %16 = load ptr, ptr %7, align 8
  store ptr %16, ptr %15, align 8
  %17 = getelementptr inbounds %class.QMessageLogContext, ptr %11, i32 0, i32 3
  %18 = load ptr, ptr %9, align 8
  store ptr %18, ptr %17, align 8
  %19 = getelementptr inbounds %class.QMessageLogContext, ptr %11, i32 0, i32 4
  %20 = load ptr, ptr %10, align 8
  store ptr %20, ptr %19, align 8
  ret void
}

; Function Attrs: mustprogress nounwind uwtable
define linkonce_odr void @_Z5qSwapIP10QImageDataEvRT_S3_(ptr noundef nonnull align 8 dereferenceable(8) %0, ptr noundef nonnull align 8 dereferenceable(8) %1) #0 comdat {
  %3 = alloca ptr, align 8
  %4 = alloca ptr, align 8
  store ptr %0, ptr %3, align 8
  store ptr %1, ptr %4, align 8
  %5 = load ptr, ptr %3, align 8
  %6 = load ptr, ptr %4, align 8
  call void @_ZSt4swapIP10QImageDataENSt9enable_ifIXsr6__and_ISt6__not_ISt15__is_tuple_likeIT_EESt21is_move_constructibleIS5_ESt18is_move_assignableIS5_EEE5valueEvE4typeERS5_SE_(ptr noundef nonnull align 8 dereferenceable(8) %5, ptr noundef nonnull align 8 dereferenceable(8) %6) #5
  ret void
}

; Function Attrs: mustprogress nounwind uwtable
define linkonce_odr void @_ZN14QMessageLoggerC2EPKciS1_(ptr noundef nonnull align 8 dereferenceable(32) %0, ptr noundef %1, i32 noundef %2, ptr noundef %3) unnamed_addr #0 comdat align 2 {
  %5 = alloca ptr, align 8
  %6 = alloca ptr, align 8
  %7 = alloca i32, align 4
  %8 = alloca ptr, align 8
  store ptr %0, ptr %5, align 8
  store ptr %1, ptr %6, align 8
  store i32 %2, ptr %7, align 4
  store ptr %3, ptr %8, align 8
  %9 = load ptr, ptr %5, align 8
  %10 = getelementptr inbounds %class.QMessageLogger, ptr %9, i32 0, i32 0
  %11 = load ptr, ptr %6, align 8
  %12 = load i32, ptr %7, align 4
  %13 = load ptr, ptr %8, align 8
  call void @_ZN18QMessageLogContextC2EPKciS1_S1_(ptr noundef nonnull align 8 dereferenceable(32) %10, ptr noundef %11, i32 noundef %12, ptr noundef %13, ptr noundef @.str.12) #5
  ret void
}

; Function Attrs: mustprogress nounwind uwtable
define linkonce_odr noundef nonnull align 8 dereferenceable(32) ptr @_ZN6QImageaSEOS_(ptr noundef nonnull align 8 dereferenceable(32) %0, ptr noundef nonnull align 8 dereferenceable(32) %1) #0 comdat align 2 {
  %3 = alloca ptr, align 8
  %4 = alloca ptr, align 8
  store ptr %0, ptr %3, align 8
  store ptr %1, ptr %4, align 8
  %5 = load ptr, ptr %3, align 8
  %6 = getelementptr inbounds %class.QImage, ptr %5, i32 0, i32 1
  %7 = load ptr, ptr %4, align 8
  %8 = getelementptr inbounds %class.QImage, ptr %7, i32 0, i32 1
  call void @_Z5qSwapIP10QImageDataEvRT_S3_(ptr noundef nonnull align 8 dereferenceable(8) %6, ptr noundef nonnull align 8 dereferenceable(8) %8) #5
  ret ptr %5
}

; Function Attrs: mustprogress uwtable
define linkonce_odr void @_ZN7QStringC2EPKc(ptr noundef nonnull align 8 dereferenceable(8) %0, ptr noundef %1) unnamed_addr #1 comdat align 2 {
  %3 = alloca ptr, align 8
  %4 = alloca ptr, align 8
  store ptr %0, ptr %3, align 8
  store ptr %1, ptr %4, align 8
  %5 = load ptr, ptr %3, align 8
  %6 = getelementptr inbounds %class.QString, ptr %5, i32 0, i32 0
  %7 = load ptr, ptr %4, align 8
  %8 = load ptr, ptr %4, align 8
  %9 = icmp ne ptr %8, null
  br i1 %9, label %10, label %14

10:                                               ; preds = %2
  %11 = load ptr, ptr %4, align 8
  %12 = call i64 @strlen(ptr noundef %11) #22
  %13 = trunc i64 %12 to i32
  br label %15

14:                                               ; preds = %2
  br label %15

15:                                               ; preds = %14, %10
  %16 = phi i32 [ %13, %10 ], [ -1, %14 ]
  %17 = call noundef ptr @_ZN7QString16fromAscii_helperEPKci(ptr noundef %7, i32 noundef %16)
  store ptr %17, ptr %6, align 8
  ret void
}

; Function Attrs: mustprogress uwtable
define noundef zeroext i1 @_ZN4SSAO12loadNoiseTxtEv(ptr noundef nonnull align 8 dereferenceable(100) %0) #1 align 2 personality ptr @__gxx_personality_v0 {
  %2 = alloca i1, align 1
  %3 = alloca ptr, align 8
  %4 = alloca %class.QImage, align 8
  %5 = alloca %class.QString, align 8
  %6 = alloca ptr, align 8
  %7 = alloca i32, align 4
  %8 = alloca %class.QFile, align 8
  %9 = alloca %class.QImage, align 8
  %10 = alloca %class.QImage, align 8
  %11 = alloca %class.QImage, align 8
  %12 = alloca %class.QMessageLogger, align 8
  %13 = alloca i32, align 4
  store ptr %0, ptr %3, align 8
  %14 = load ptr, ptr %3, align 8
  call void @_ZN6QImageC1Ev(ptr noundef nonnull align 8 dereferenceable(32) %4) #5
  invoke void @_ZN7QStringC2EPKc(ptr noundef nonnull align 8 dereferenceable(8) %5, ptr noundef @.str.24)
          to label %15 unwind label %31

15:                                               ; preds = %1
  invoke void @_ZN5QFileC1ERK7QString(ptr noundef nonnull align 8 dereferenceable(16) %8, ptr noundef nonnull align 8 dereferenceable(8) %5)
          to label %16 unwind label %35

16:                                               ; preds = %15
  %17 = invoke noundef zeroext i1 @_ZNK5QFile6existsEv(ptr noundef nonnull align 8 dereferenceable(16) %8)
          to label %18 unwind label %39

18:                                               ; preds = %16
  call void @_ZN5QFileD1Ev(ptr noundef nonnull align 8 dereferenceable(16) %8) #5
  br i1 %17, label %19, label %47

19:                                               ; preds = %18
  invoke void @_ZN6QImageC1ERK7QStringPKc(ptr noundef nonnull align 8 dereferenceable(32) %9, ptr noundef nonnull align 8 dereferenceable(8) %5, ptr noundef null)
          to label %20 unwind label %35

20:                                               ; preds = %19
  %21 = call noundef nonnull align 8 dereferenceable(32) ptr @_ZN6QImageaSEOS_(ptr noundef nonnull align 8 dereferenceable(32) %4, ptr noundef nonnull align 8 dereferenceable(32) %9) #5
  call void @_ZN6QImageD1Ev(ptr noundef nonnull align 8 dereferenceable(32) %9) #5
  %22 = invoke noundef i32 @_ZNK6QImage5widthEv(ptr noundef nonnull align 8 dereferenceable(32) %4)
          to label %23 unwind label %35

23:                                               ; preds = %20
  %24 = getelementptr inbounds %class.SSAO, ptr %14, i32 0, i32 3
  store i32 %22, ptr %24, align 8
  %25 = invoke noundef i32 @_ZNK6QImage6heightEv(ptr noundef nonnull align 8 dereferenceable(32) %4)
          to label %26 unwind label %35

26:                                               ; preds = %23
  %27 = getelementptr inbounds %class.SSAO, ptr %14, i32 0, i32 4
  store i32 %25, ptr %27, align 4
  invoke void @_ZN9QGLWidget17convertToGLFormatERK6QImage(ptr dead_on_unwind writable sret(%class.QImage) align 8 %10, ptr noundef nonnull align 8 dereferenceable(32) %4)
          to label %28 unwind label %35

28:                                               ; preds = %26
  invoke void @_ZN6QImageC1ERKS_(ptr noundef nonnull align 8 dereferenceable(32) %11, ptr noundef nonnull align 8 dereferenceable(32) %10)
          to label %29 unwind label %43

29:                                               ; preds = %28
  %30 = call noundef nonnull align 8 dereferenceable(32) ptr @_ZN6QImageaSEOS_(ptr noundef nonnull align 8 dereferenceable(32) %4, ptr noundef nonnull align 8 dereferenceable(32) %11) #5
  call void @_ZN6QImageD1Ev(ptr noundef nonnull align 8 dereferenceable(32) %11) #5
  call void @_ZN6QImageD1Ev(ptr noundef nonnull align 8 dereferenceable(32) %10) #5
  br label %50

31:                                               ; preds = %1
  %32 = landingpad { ptr, i32 }
          cleanup
  %33 = extractvalue { ptr, i32 } %32, 0
  store ptr %33, ptr %6, align 8
  %34 = extractvalue { ptr, i32 } %32, 1
  store i32 %34, ptr %7, align 4
  br label %70

35:                                               ; preds = %65, %59, %58, %57, %56, %55, %52, %50, %48, %47, %26, %23, %20, %19, %15
  %36 = landingpad { ptr, i32 }
          cleanup
  %37 = extractvalue { ptr, i32 } %36, 0
  store ptr %37, ptr %6, align 8
  %38 = extractvalue { ptr, i32 } %36, 1
  store i32 %38, ptr %7, align 4
  br label %69

39:                                               ; preds = %16
  %40 = landingpad { ptr, i32 }
          cleanup
  %41 = extractvalue { ptr, i32 } %40, 0
  store ptr %41, ptr %6, align 8
  %42 = extractvalue { ptr, i32 } %40, 1
  store i32 %42, ptr %7, align 4
  call void @_ZN5QFileD1Ev(ptr noundef nonnull align 8 dereferenceable(16) %8) #5
  br label %69

43:                                               ; preds = %28
  %44 = landingpad { ptr, i32 }
          cleanup
  %45 = extractvalue { ptr, i32 } %44, 0
  store ptr %45, ptr %6, align 8
  %46 = extractvalue { ptr, i32 } %44, 1
  store i32 %46, ptr %7, align 4
  call void @_ZN6QImageD1Ev(ptr noundef nonnull align 8 dereferenceable(32) %10) #5
  br label %69

47:                                               ; preds = %18
  invoke void @_ZN14QMessageLoggerC2EPKciS1_(ptr noundef nonnull align 8 dereferenceable(32) %12, ptr noundef null, i32 noundef 0, ptr noundef null)
          to label %48 unwind label %35

48:                                               ; preds = %47
  invoke void (ptr, ptr, ...) @_ZNK14QMessageLogger5debugEPKcz(ptr noundef nonnull align 8 dereferenceable(32) %12, ptr noundef @.str.25)
          to label %49 unwind label %35

49:                                               ; preds = %48
  store i1 false, ptr %2, align 1
  store i32 1, ptr %13, align 4
  br label %67

50:                                               ; preds = %29
  %51 = getelementptr inbounds %class.SSAO, ptr %14, i32 0, i32 7
  invoke void @glGenTextures(i32 noundef 1, ptr noundef %51)
          to label %52 unwind label %35

52:                                               ; preds = %50
  %53 = getelementptr inbounds %class.SSAO, ptr %14, i32 0, i32 7
  %54 = load i32, ptr %53, align 8
  invoke void @glBindTexture(i32 noundef 3553, i32 noundef %54)
          to label %55 unwind label %35

55:                                               ; preds = %52
  invoke void @glTexParameteri(i32 noundef 3553, i32 noundef 10242, i32 noundef 10497)
          to label %56 unwind label %35

56:                                               ; preds = %55
  invoke void @glTexParameteri(i32 noundef 3553, i32 noundef 10243, i32 noundef 10497)
          to label %57 unwind label %35

57:                                               ; preds = %56
  invoke void @glTexParameteri(i32 noundef 3553, i32 noundef 10240, i32 noundef 9729)
          to label %58 unwind label %35

58:                                               ; preds = %57
  invoke void @glTexParameteri(i32 noundef 3553, i32 noundef 10241, i32 noundef 9729)
          to label %59 unwind label %35

59:                                               ; preds = %58
  %60 = getelementptr inbounds %class.SSAO, ptr %14, i32 0, i32 3
  %61 = load i32, ptr %60, align 8
  %62 = getelementptr inbounds %class.SSAO, ptr %14, i32 0, i32 4
  %63 = load i32, ptr %62, align 4
  %64 = invoke noundef ptr @_ZN6QImage4bitsEv(ptr noundef nonnull align 8 dereferenceable(32) %4)
          to label %65 unwind label %35

65:                                               ; preds = %59
  invoke void @glTexImage2D(i32 noundef 3553, i32 noundef 0, i32 noundef 6407, i32 noundef %61, i32 noundef %63, i32 noundef 0, i32 noundef 6407, i32 noundef 5121, ptr noundef %64)
          to label %66 unwind label %35

66:                                               ; preds = %65
  store i1 true, ptr %2, align 1
  store i32 1, ptr %13, align 4
  br label %67

67:                                               ; preds = %66, %49
  call void @_ZN7QStringD2Ev(ptr noundef nonnull align 8 dereferenceable(8) %5) #5
  call void @_ZN6QImageD1Ev(ptr noundef nonnull align 8 dereferenceable(32) %4) #5
  %68 = load i1, ptr %2, align 1
  ret i1 %68

69:                                               ; preds = %43, %39, %35
  call void @_ZN7QStringD2Ev(ptr noundef nonnull align 8 dereferenceable(8) %5) #5
  br label %70

70:                                               ; preds = %69, %31
  call void @_ZN6QImageD1Ev(ptr noundef nonnull align 8 dereferenceable(32) %4) #5
  br label %71

71:                                               ; preds = %70
  %72 = load ptr, ptr %6, align 8
  %73 = load i32, ptr %7, align 4
  %74 = insertvalue { ptr, i32 } poison, ptr %72, 0
  %75 = insertvalue { ptr, i32 } %74, i32 %73, 1
  resume { ptr, i32 } %75
}