; Function Attrs: mustprogress uwtable
define noundef zeroext i1 @_ZN4SSAO12loadNoiseTxtEv(ptr noundef nonnull align 8 dereferenceable(100) %0) local_unnamed_addr #1 align 2 personality ptr @__gxx_personality_v0 {
  %2 = alloca %class.QImage, align 8
  %3 = alloca %class.QString, align 8
  %4 = alloca %class.QFile, align 8
  %5 = alloca %class.QImage, align 8
  %6 = alloca %class.QImage, align 8
  %7 = alloca %class.QImage, align 8
  %8 = alloca %class.QMessageLogger, align 8
  call void @_ZN6QImageC1Ev(ptr noundef nonnull align 8 dereferenceable(32) %2) #21
  %9 = invoke noundef ptr @_ZN7QString16fromAscii_helperEPKci(ptr noundef nonnull @.str.24, i32 noundef 10)
          to label %10 unwind label %32

10:                                               ; preds = %1
  store ptr %9, ptr %3, align 8
  invoke void @_ZN5QFileC1ERK7QString(ptr noundef nonnull align 8 dereferenceable(16) %4, ptr noundef nonnull align 8 dereferenceable(8) %3)
          to label %11 unwind label %34

11:                                               ; preds = %10
  %12 = invoke noundef zeroext i1 @_ZNK5QFile6existsEv(ptr noundef nonnull align 8 dereferenceable(16) %4)
          to label %13 unwind label %36

13:                                               ; preds = %11
  call void @_ZN5QFileD1Ev(ptr noundef nonnull align 8 dereferenceable(16) %4) #21
  br i1 %12, label %14, label %40

14:                                               ; preds = %13
  invoke void @_ZN6QImageC1ERK7QStringPKc(ptr noundef nonnull align 8 dereferenceable(32) %5, ptr noundef nonnull align 8 dereferenceable(8) %3, ptr noundef null)
          to label %15 unwind label %34

15:                                               ; preds = %14
  %16 = getelementptr inbounds i8, ptr %2, i64 24
  %17 = getelementptr inbounds i8, ptr %5, i64 24
  %18 = load ptr, ptr %16, align 8
  %19 = load ptr, ptr %17, align 8
  store ptr %19, ptr %16, align 8
  store ptr %18, ptr %17, align 8
  call void @_ZN6QImageD1Ev(ptr noundef nonnull align 8 dereferenceable(32) %5) #21
  %20 = invoke noundef i32 @_ZNK6QImage5widthEv(ptr noundef nonnull align 8 dereferenceable(32) %2)
          to label %21 unwind label %34

21:                                               ; preds = %15
  %22 = getelementptr inbounds i8, ptr %0, i64 32
  store i32 %20, ptr %22, align 8
  %23 = invoke noundef i32 @_ZNK6QImage6heightEv(ptr noundef nonnull align 8 dereferenceable(32) %2)
          to label %24 unwind label %34

24:                                               ; preds = %21
  %25 = getelementptr inbounds i8, ptr %0, i64 36
  store i32 %23, ptr %25, align 4
  invoke void @_ZN9QGLWidget17convertToGLFormatERK6QImage(ptr dead_on_unwind nonnull writable sret(%class.QImage) align 8 %6, ptr noundef nonnull align 8 dereferenceable(32) %2)
          to label %26 unwind label %34

26:                                               ; preds = %24
  invoke void @_ZN6QImageC1ERKS_(ptr noundef nonnull align 8 dereferenceable(32) %7, ptr noundef nonnull align 8 dereferenceable(32) %6)
          to label %27 unwind label %38

27:                                               ; preds = %26
  %28 = getelementptr inbounds i8, ptr %7, i64 24
  %29 = load ptr, ptr %16, align 8
  %30 = load ptr, ptr %28, align 8
  store ptr %30, ptr %16, align 8
  store ptr %29, ptr %28, align 8
  call void @_ZN6QImageD1Ev(ptr noundef nonnull align 8 dereferenceable(32) %7) #21
  call void @_ZN6QImageD1Ev(ptr noundef nonnull align 8 dereferenceable(32) %6) #21
  %31 = getelementptr inbounds i8, ptr %0, i64 48
  invoke void @glGenTextures(i32 noundef 1, ptr noundef nonnull %31)
          to label %43 unwind label %34

32:                                               ; preds = %1
  %33 = landingpad { ptr, i32 }
          cleanup
  br label %60

34:                                               ; preds = %53, %49, %48, %47, %46, %45, %43, %27, %40, %24, %21, %15, %14, %10
  %35 = landingpad { ptr, i32 }
          cleanup
  br label %59

36:                                               ; preds = %11
  %37 = landingpad { ptr, i32 }
          cleanup
  call void @_ZN5QFileD1Ev(ptr noundef nonnull align 8 dereferenceable(16) %4) #21
  br label %59

38:                                               ; preds = %26
  %39 = landingpad { ptr, i32 }
          cleanup
  call void @_ZN6QImageD1Ev(ptr noundef nonnull align 8 dereferenceable(32) %6) #21
  br label %59

40:                                               ; preds = %13
  store i32 2, ptr %8, align 8
  %41 = getelementptr inbounds i8, ptr %8, i64 4
  %42 = getelementptr inbounds i8, ptr %8, i64 24
  call void @llvm.memset.p0.i64(ptr noundef nonnull align 4 dereferenceable(20) %41, i8 0, i64 20, i1 false)
  store ptr @.str.12, ptr %42, align 8
  invoke void (ptr, ptr, ...) @_ZNK14QMessageLogger5debugEPKcz(ptr noundef nonnull align 8 dereferenceable(32) %8, ptr noundef nonnull @.str.25)
          to label %54 unwind label %34

43:                                               ; preds = %27
  %44 = load i32, ptr %31, align 8
  invoke void @glBindTexture(i32 noundef 3553, i32 noundef %44)
          to label %45 unwind label %34

45:                                               ; preds = %43
  invoke void @glTexParameteri(i32 noundef 3553, i32 noundef 10242, i32 noundef 10497)
          to label %46 unwind label %34

46:                                               ; preds = %45
  invoke void @glTexParameteri(i32 noundef 3553, i32 noundef 10243, i32 noundef 10497)
          to label %47 unwind label %34

47:                                               ; preds = %46
  invoke void @glTexParameteri(i32 noundef 3553, i32 noundef 10240, i32 noundef 9729)
          to label %48 unwind label %34

48:                                               ; preds = %47
  invoke void @glTexParameteri(i32 noundef 3553, i32 noundef 10241, i32 noundef 9729)
          to label %49 unwind label %34

49:                                               ; preds = %48
  %50 = load i32, ptr %22, align 8
  %51 = load i32, ptr %25, align 4
  %52 = invoke noundef ptr @_ZN6QImage4bitsEv(ptr noundef nonnull align 8 dereferenceable(32) %2)
          to label %53 unwind label %34

53:                                               ; preds = %49
  invoke void @glTexImage2D(i32 noundef 3553, i32 noundef 0, i32 noundef 6407, i32 noundef %50, i32 noundef %51, i32 noundef 0, i32 noundef 6407, i32 noundef 5121, ptr noundef %52)
          to label %54 unwind label %34

54:                                               ; preds = %53, %40
  %55 = load ptr, ptr %3, align 8
  %56 = load atomic i32, ptr %55 monotonic, align 4
  switch i32 %56, label %_ZN9QtPrivate8RefCount5derefEv.exit.i [
    i32 0, label %_ZN9QtPrivate8RefCount5derefEv.exit.thread2.i
    i32 -1, label %_ZN7QStringD2Ev.exit
  ]

_ZN9QtPrivate8RefCount5derefEv.exit.i:            ; preds = %54
  %57 = atomicrmw sub ptr %55, i32 1 seq_cst, align 4
  %.not.i = icmp eq i32 %57, 1
  br i1 %.not.i, label %_ZN9QtPrivate8RefCount5derefEv.exit._ZN9QtPrivate8RefCount5derefEv.exit.thread2_crit_edge.i, label %_ZN7QStringD2Ev.exit

_ZN9QtPrivate8RefCount5derefEv.exit._ZN9QtPrivate8RefCount5derefEv.exit.thread2_crit_edge.i: ; preds = %_ZN9QtPrivate8RefCount5derefEv.exit.i
  %.pre.i = load ptr, ptr %3, align 8
  br label %_ZN9QtPrivate8RefCount5derefEv.exit.thread2.i

_ZN9QtPrivate8RefCount5derefEv.exit.thread2.i:    ; preds = %_ZN9QtPrivate8RefCount5derefEv.exit._ZN9QtPrivate8RefCount5derefEv.exit.thread2_crit_edge.i, %54
  %58 = phi ptr [ %.pre.i, %_ZN9QtPrivate8RefCount5derefEv.exit._ZN9QtPrivate8RefCount5derefEv.exit.thread2_crit_edge.i ], [ %55, %54 ]
  call void @_ZN10QArrayData10deallocateEPS_mm(ptr noundef %58, i64 noundef 2, i64 noundef 8) #21
  br label %_ZN7QStringD2Ev.exit

_ZN7QStringD2Ev.exit:                             ; preds = %54, %_ZN9QtPrivate8RefCount5derefEv.exit.i, %_ZN9QtPrivate8RefCount5derefEv.exit.thread2.i
  call void @_ZN6QImageD1Ev(ptr noundef nonnull align 8 dereferenceable(32) %2) #21
  ret i1 %12

59:                                               ; preds = %38, %36, %34
  %.pn = phi { ptr, i32 } [ %35, %34 ], [ %39, %38 ], [ %37, %36 ]
  call void @_ZN7QStringD2Ev(ptr noundef nonnull align 8 dereferenceable(8) %3) #21
  br label %60

60:                                               ; preds = %59, %32
  %.pn.pn = phi { ptr, i32 } [ %.pn, %59 ], [ %33, %32 ]
  call void @_ZN6QImageD1Ev(ptr noundef nonnull align 8 dereferenceable(32) %2) #21
  resume { ptr, i32 } %.pn.pn
}